
Slave3.elf:     file format elf32-avr

Sections:
Idx Name          Size      VMA       LMA       File off  Algn
  0 .data         00000036  00800100  00000544  000005b8  2**0
                  CONTENTS, ALLOC, LOAD, DATA
  1 .text         00000544  00000000  00000000  00000074  2**1
                  CONTENTS, ALLOC, LOAD, READONLY, CODE
  2 .comment      00000030  00000000  00000000  000005ee  2**0
                  CONTENTS, READONLY
  3 .note.gnu.avr.deviceinfo 00000040  00000000  00000000  00000620  2**2
                  CONTENTS, READONLY
  4 .debug_aranges 00000108  00000000  00000000  00000660  2**0
                  CONTENTS, READONLY, DEBUGGING
  5 .debug_info   000014a2  00000000  00000000  00000768  2**0
                  CONTENTS, READONLY, DEBUGGING
  6 .debug_abbrev 00000af7  00000000  00000000  00001c0a  2**0
                  CONTENTS, READONLY, DEBUGGING
  7 .debug_line   00000a06  00000000  00000000  00002701  2**0
                  CONTENTS, READONLY, DEBUGGING
  8 .debug_frame  000002c8  00000000  00000000  00003108  2**2
                  CONTENTS, READONLY, DEBUGGING
  9 .debug_str    000005db  00000000  00000000  000033d0  2**0
                  CONTENTS, READONLY, DEBUGGING
 10 .debug_loc    00000c76  00000000  00000000  000039ab  2**0
                  CONTENTS, READONLY, DEBUGGING
 11 .debug_ranges 00000120  00000000  00000000  00004621  2**0
                  CONTENTS, READONLY, DEBUGGING

Disassembly of section .text:

00000000 <__vectors>:
   0:	0c 94 34 00 	jmp	0x68	; 0x68 <__ctors_end>
   4:	0c 94 49 00 	jmp	0x92	; 0x92 <__bad_interrupt>
   8:	0c 94 49 00 	jmp	0x92	; 0x92 <__bad_interrupt>
   c:	0c 94 49 00 	jmp	0x92	; 0x92 <__bad_interrupt>
  10:	0c 94 49 00 	jmp	0x92	; 0x92 <__bad_interrupt>
  14:	0c 94 49 00 	jmp	0x92	; 0x92 <__bad_interrupt>
  18:	0c 94 49 00 	jmp	0x92	; 0x92 <__bad_interrupt>
  1c:	0c 94 49 00 	jmp	0x92	; 0x92 <__bad_interrupt>
  20:	0c 94 49 00 	jmp	0x92	; 0x92 <__bad_interrupt>
  24:	0c 94 49 00 	jmp	0x92	; 0x92 <__bad_interrupt>
  28:	0c 94 49 00 	jmp	0x92	; 0x92 <__bad_interrupt>
  2c:	0c 94 49 00 	jmp	0x92	; 0x92 <__bad_interrupt>
  30:	0c 94 49 00 	jmp	0x92	; 0x92 <__bad_interrupt>
  34:	0c 94 49 00 	jmp	0x92	; 0x92 <__bad_interrupt>
  38:	0c 94 49 00 	jmp	0x92	; 0x92 <__bad_interrupt>
  3c:	0c 94 49 00 	jmp	0x92	; 0x92 <__bad_interrupt>
  40:	0c 94 49 00 	jmp	0x92	; 0x92 <__bad_interrupt>
  44:	0c 94 49 00 	jmp	0x92	; 0x92 <__bad_interrupt>
  48:	0c 94 49 00 	jmp	0x92	; 0x92 <__bad_interrupt>
  4c:	0c 94 49 00 	jmp	0x92	; 0x92 <__bad_interrupt>
  50:	0c 94 49 00 	jmp	0x92	; 0x92 <__bad_interrupt>
  54:	0c 94 49 00 	jmp	0x92	; 0x92 <__bad_interrupt>
  58:	0c 94 49 00 	jmp	0x92	; 0x92 <__bad_interrupt>
  5c:	0c 94 49 00 	jmp	0x92	; 0x92 <__bad_interrupt>
  60:	0c 94 49 00 	jmp	0x92	; 0x92 <__bad_interrupt>
  64:	0c 94 49 00 	jmp	0x92	; 0x92 <__bad_interrupt>

00000068 <__ctors_end>:
  68:	11 24       	eor	r1, r1
  6a:	1f be       	out	0x3f, r1	; 63
  6c:	cf ef       	ldi	r28, 0xFF	; 255
  6e:	d8 e0       	ldi	r29, 0x08	; 8
  70:	de bf       	out	0x3e, r29	; 62
  72:	cd bf       	out	0x3d, r28	; 61

00000074 <__do_copy_data>:
  74:	11 e0       	ldi	r17, 0x01	; 1
  76:	a0 e0       	ldi	r26, 0x00	; 0
  78:	b1 e0       	ldi	r27, 0x01	; 1
  7a:	e4 e4       	ldi	r30, 0x44	; 68
  7c:	f5 e0       	ldi	r31, 0x05	; 5
  7e:	02 c0       	rjmp	.+4      	; 0x84 <__do_copy_data+0x10>
  80:	05 90       	lpm	r0, Z+
  82:	0d 92       	st	X+, r0
  84:	a6 33       	cpi	r26, 0x36	; 54
  86:	b1 07       	cpc	r27, r17
  88:	d9 f7       	brne	.-10     	; 0x80 <__do_copy_data+0xc>
  8a:	0e 94 d9 00 	call	0x1b2	; 0x1b2 <main>
  8e:	0c 94 a0 02 	jmp	0x540	; 0x540 <_exit>

00000092 <__bad_interrupt>:
  92:	0c 94 00 00 	jmp	0	; 0x0 <__vectors>

00000096 <Lcd_Enable>:
  96:	85 b1       	in	r24, 0x05	; 5
  98:	84 60       	ori	r24, 0x04	; 4
  9a:	85 b9       	out	0x05, r24	; 5
	#else
		//round up by default
		__ticks_dc = (uint32_t)(ceil(fabs(__tmp)));
	#endif

	__builtin_avr_delay_cycles(__ticks_dc);
  9c:	85 e0       	ldi	r24, 0x05	; 5
  9e:	8a 95       	dec	r24
  a0:	f1 f7       	brne	.-4      	; 0x9e <Lcd_Enable+0x8>
  a2:	00 00       	nop
  a4:	85 b1       	in	r24, 0x05	; 5
  a6:	8b 7f       	andi	r24, 0xFB	; 251
  a8:	85 b9       	out	0x05, r24	; 5
  aa:	8f e8       	ldi	r24, 0x8F	; 143
  ac:	91 e0       	ldi	r25, 0x01	; 1
  ae:	01 97       	sbiw	r24, 0x01	; 1
  b0:	f1 f7       	brne	.-4      	; 0xae <Lcd_Enable+0x18>
  b2:	00 c0       	rjmp	.+0      	; 0xb4 <Lcd_Enable+0x1e>
  b4:	00 00       	nop
  b6:	08 95       	ret

000000b8 <Lcd_Send_Nibble>:
  b8:	2b b1       	in	r18, 0x0b	; 11
  ba:	30 e1       	ldi	r19, 0x10	; 16
  bc:	83 9f       	mul	r24, r19
  be:	c0 01       	movw	r24, r0
  c0:	11 24       	eor	r1, r1
  c2:	2f 70       	andi	r18, 0x0F	; 15
  c4:	82 2b       	or	r24, r18
  c6:	8b b9       	out	0x0b, r24	; 11
  c8:	0e 94 4b 00 	call	0x96	; 0x96 <Lcd_Enable>
  cc:	08 95       	ret

000000ce <Lcd_Send_Byte>:
  ce:	cf 93       	push	r28
  d0:	c8 2f       	mov	r28, r24
  d2:	66 23       	and	r22, r22
  d4:	21 f0       	breq	.+8      	; 0xde <Lcd_Send_Byte+0x10>
  d6:	85 b1       	in	r24, 0x05	; 5
  d8:	81 60       	ori	r24, 0x01	; 1
  da:	85 b9       	out	0x05, r24	; 5
  dc:	03 c0       	rjmp	.+6      	; 0xe4 <Lcd_Send_Byte+0x16>
  de:	85 b1       	in	r24, 0x05	; 5
  e0:	8e 7f       	andi	r24, 0xFE	; 254
  e2:	85 b9       	out	0x05, r24	; 5
  e4:	85 b1       	in	r24, 0x05	; 5
  e6:	8d 7f       	andi	r24, 0xFD	; 253
  e8:	85 b9       	out	0x05, r24	; 5
  ea:	8c 2f       	mov	r24, r28
  ec:	82 95       	swap	r24
  ee:	8f 70       	andi	r24, 0x0F	; 15
  f0:	0e 94 5c 00 	call	0xb8	; 0xb8 <Lcd_Send_Nibble>
  f4:	8c 2f       	mov	r24, r28
  f6:	8f 70       	andi	r24, 0x0F	; 15
  f8:	0e 94 5c 00 	call	0xb8	; 0xb8 <Lcd_Send_Nibble>
  fc:	cf 91       	pop	r28
  fe:	08 95       	ret

00000100 <Lcd_Clear>:
 100:	60 e0       	ldi	r22, 0x00	; 0
 102:	81 e0       	ldi	r24, 0x01	; 1
 104:	0e 94 67 00 	call	0xce	; 0xce <Lcd_Send_Byte>
	#else
		//round up by default
		__ticks_dc = (uint32_t)(ceil(fabs(__tmp)));
	#endif

	__builtin_avr_delay_cycles(__ticks_dc);
 108:	8f e3       	ldi	r24, 0x3F	; 63
 10a:	9f e1       	ldi	r25, 0x1F	; 31
 10c:	01 97       	sbiw	r24, 0x01	; 1
 10e:	f1 f7       	brne	.-4      	; 0x10c <Lcd_Clear+0xc>
 110:	00 c0       	rjmp	.+0      	; 0x112 <Lcd_Clear+0x12>
 112:	00 00       	nop
 114:	08 95       	ret

00000116 <Lcd_Init>:
 116:	8a b1       	in	r24, 0x0a	; 10
 118:	80 6f       	ori	r24, 0xF0	; 240
 11a:	8a b9       	out	0x0a, r24	; 10
 11c:	84 b1       	in	r24, 0x04	; 4
 11e:	87 60       	ori	r24, 0x07	; 7
 120:	84 b9       	out	0x04, r24	; 4
 122:	2f ef       	ldi	r18, 0xFF	; 255
 124:	89 ef       	ldi	r24, 0xF9	; 249
 126:	90 e0       	ldi	r25, 0x00	; 0
 128:	21 50       	subi	r18, 0x01	; 1
 12a:	80 40       	sbci	r24, 0x00	; 0
 12c:	90 40       	sbci	r25, 0x00	; 0
 12e:	e1 f7       	brne	.-8      	; 0x128 <Lcd_Init+0x12>
 130:	00 c0       	rjmp	.+0      	; 0x132 <Lcd_Init+0x1c>
 132:	00 00       	nop
 134:	83 e0       	ldi	r24, 0x03	; 3
 136:	0e 94 5c 00 	call	0xb8	; 0xb8 <Lcd_Send_Nibble>
 13a:	8f e1       	ldi	r24, 0x1F	; 31
 13c:	9e e4       	ldi	r25, 0x4E	; 78
 13e:	01 97       	sbiw	r24, 0x01	; 1
 140:	f1 f7       	brne	.-4      	; 0x13e <Lcd_Init+0x28>
 142:	00 c0       	rjmp	.+0      	; 0x144 <Lcd_Init+0x2e>
 144:	00 00       	nop
 146:	83 e0       	ldi	r24, 0x03	; 3
 148:	0e 94 5c 00 	call	0xb8	; 0xb8 <Lcd_Send_Nibble>
	#else
		//round up by default
		__ticks_dc = (uint32_t)(ceil(fabs(__tmp)));
	#endif

	__builtin_avr_delay_cycles(__ticks_dc);
 14c:	87 e5       	ldi	r24, 0x57	; 87
 14e:	92 e0       	ldi	r25, 0x02	; 2
 150:	01 97       	sbiw	r24, 0x01	; 1
 152:	f1 f7       	brne	.-4      	; 0x150 <Lcd_Init+0x3a>
 154:	00 c0       	rjmp	.+0      	; 0x156 <Lcd_Init+0x40>
 156:	00 00       	nop
 158:	83 e0       	ldi	r24, 0x03	; 3
 15a:	0e 94 5c 00 	call	0xb8	; 0xb8 <Lcd_Send_Nibble>
 15e:	82 e0       	ldi	r24, 0x02	; 2
 160:	0e 94 5c 00 	call	0xb8	; 0xb8 <Lcd_Send_Nibble>
 164:	60 e0       	ldi	r22, 0x00	; 0
 166:	88 e2       	ldi	r24, 0x28	; 40
 168:	0e 94 67 00 	call	0xce	; 0xce <Lcd_Send_Byte>
 16c:	60 e0       	ldi	r22, 0x00	; 0
 16e:	8c e0       	ldi	r24, 0x0C	; 12
 170:	0e 94 67 00 	call	0xce	; 0xce <Lcd_Send_Byte>
 174:	60 e0       	ldi	r22, 0x00	; 0
 176:	86 e0       	ldi	r24, 0x06	; 6
 178:	0e 94 67 00 	call	0xce	; 0xce <Lcd_Send_Byte>
 17c:	0e 94 80 00 	call	0x100	; 0x100 <Lcd_Clear>
 180:	08 95       	ret

00000182 <Lcd_Set_Cursor>:
 182:	61 11       	cpse	r22, r1
 184:	02 c0       	rjmp	.+4      	; 0x18a <Lcd_Set_Cursor+0x8>
 186:	90 e8       	ldi	r25, 0x80	; 128
 188:	01 c0       	rjmp	.+2      	; 0x18c <Lcd_Set_Cursor+0xa>
 18a:	90 ec       	ldi	r25, 0xC0	; 192
 18c:	60 e0       	ldi	r22, 0x00	; 0
 18e:	89 0f       	add	r24, r25
 190:	0e 94 67 00 	call	0xce	; 0xce <Lcd_Send_Byte>
 194:	08 95       	ret

00000196 <Lcd_Msg>:
 196:	cf 93       	push	r28
 198:	df 93       	push	r29
 19a:	ec 01       	movw	r28, r24
 19c:	04 c0       	rjmp	.+8      	; 0x1a6 <Lcd_Msg+0x10>
 19e:	21 96       	adiw	r28, 0x01	; 1
 1a0:	61 e0       	ldi	r22, 0x01	; 1
 1a2:	0e 94 67 00 	call	0xce	; 0xce <Lcd_Send_Byte>
 1a6:	88 81       	ld	r24, Y
 1a8:	81 11       	cpse	r24, r1
 1aa:	f9 cf       	rjmp	.-14     	; 0x19e <Lcd_Msg+0x8>
 1ac:	df 91       	pop	r29
 1ae:	cf 91       	pop	r28
 1b0:	08 95       	ret

000001b2 <main>:
#include "Modbus_RS485_Lib.h"
#include "LCD_Lib.h"

#define DATA_ERROR 0xFF

int main(){
 1b2:	cf 93       	push	r28
 1b4:	df 93       	push	r29
 1b6:	cd b7       	in	r28, 0x3d	; 61
 1b8:	de b7       	in	r29, 0x3e	; 62
 1ba:	62 97       	sbiw	r28, 0x12	; 18
 1bc:	0f b6       	in	r0, 0x3f	; 63
 1be:	f8 94       	cli
 1c0:	de bf       	out	0x3e, r29	; 62
 1c2:	0f be       	out	0x3f, r0	; 63
 1c4:	cd bf       	out	0x3d, r28	; 61
	Uart_Init(BAUD);
 1c6:	80 e8       	ldi	r24, 0x80	; 128
 1c8:	95 e2       	ldi	r25, 0x25	; 37
 1ca:	0e 94 88 01 	call	0x310	; 0x310 <Uart_Init>
	RS485_Init();
 1ce:	0e 94 cc 01 	call	0x398	; 0x398 <RS485_Init>
	Lcd_Init();
 1d2:	0e 94 8b 00 	call	0x116	; 0x116 <Lcd_Init>

	Lcd_Clear();
 1d6:	0e 94 80 00 	call	0x100	; 0x100 <Lcd_Clear>
	Lcd_Set_Cursor(0, 0);
 1da:	60 e0       	ldi	r22, 0x00	; 0
 1dc:	80 e0       	ldi	r24, 0x00	; 0
 1de:	0e 94 c1 00 	call	0x182	; 0x182 <Lcd_Set_Cursor>
	Lcd_Msg("Slave3: ");
 1e2:	80 e0       	ldi	r24, 0x00	; 0
 1e4:	91 e0       	ldi	r25, 0x01	; 1
 1e6:	0e 94 cb 00 	call	0x196	; 0x196 <Lcd_Msg>
	Lcd_Set_Cursor(0, 1);
 1ea:	61 e0       	ldi	r22, 0x01	; 1
 1ec:	80 e0       	ldi	r24, 0x00	; 0
 1ee:	0e 94 c1 00 	call	0x182	; 0x182 <Lcd_Set_Cursor>
	Lcd_Msg("Data: ");
 1f2:	89 e0       	ldi	r24, 0x09	; 9
 1f4:	91 e0       	ldi	r25, 0x01	; 1
 1f6:	0e 94 cb 00 	call	0x196	; 0x196 <Lcd_Msg>

	uint16_t Length_Data_Slave3 = 1;
	uint8_t Data_Slave3;
	char buffer[17] = "";
 1fa:	1b 82       	std	Y+3, r1	; 0x03
 1fc:	1a 82       	std	Y+2, r1	; 0x02
 1fe:	fe 01       	movw	r30, r28
 200:	34 96       	adiw	r30, 0x04	; 4
 202:	8f e0       	ldi	r24, 0x0F	; 15
 204:	df 01       	movw	r26, r30
 206:	1d 92       	st	X+, r1
 208:	8a 95       	dec	r24
 20a:	e9 f7       	brne	.-6      	; 0x206 <main+0x54>
	uint8_t no_data_counter = 0; // ??m th?i gian không nh?n ???c d? li?u

	DDRC |= (1 << PORTC0);
 20c:	87 b1       	in	r24, 0x07	; 7
 20e:	81 60       	ori	r24, 0x01	; 1
 210:	87 b9       	out	0x07, r24	; 7
	PORTC &= ~(1 << PORTC0);
 212:	88 b1       	in	r24, 0x08	; 8
 214:	8e 7f       	andi	r24, 0xFE	; 254
 216:	88 b9       	out	0x08, r24	; 8
	Lcd_Msg("Data: ");

	uint16_t Length_Data_Slave3 = 1;
	uint8_t Data_Slave3;
	char buffer[17] = "";
	uint8_t no_data_counter = 0; // ??m th?i gian không nh?n ???c d? li?u
 218:	10 e0       	ldi	r17, 0x00	; 0

	DDRC |= (1 << PORTC0);
	PORTC &= ~(1 << PORTC0);

	while(1){
		if(Modbus_Rec(ADDR_SLAVE3, &Data_Slave3, Length_Data_Slave3)){
 21a:	41 e0       	ldi	r20, 0x01	; 1
 21c:	50 e0       	ldi	r21, 0x00	; 0
 21e:	be 01       	movw	r22, r28
 220:	6f 5f       	subi	r22, 0xFF	; 255
 222:	7f 4f       	sbci	r23, 0xFF	; 255
 224:	83 e0       	ldi	r24, 0x03	; 3
 226:	0e 94 2c 02 	call	0x458	; 0x458 <Modbus_Rec>
 22a:	88 23       	and	r24, r24
 22c:	09 f4       	brne	.+2      	; 0x230 <main+0x7e>
 22e:	51 c0       	rjmp	.+162    	; 0x2d2 <main+0x120>
			no_data_counter = 0;  // Reset n?u có d? li?u

			// Ký t? h?p l?
			if(Data_Slave3 >= 32 && Data_Slave3 <= 126){
 230:	89 81       	ldd	r24, Y+1	; 0x01
 232:	90 ee       	ldi	r25, 0xE0	; 224
 234:	98 0f       	add	r25, r24
 236:	9f 35       	cpi	r25, 0x5F	; 95
 238:	d8 f4       	brcc	.+54     	; 0x270 <main+0xbe>
				uint8_t len = strlen(buffer);
 23a:	de 01       	movw	r26, r28
 23c:	12 96       	adiw	r26, 0x02	; 2
 23e:	fd 01       	movw	r30, r26
 240:	01 90       	ld	r0, Z+
 242:	00 20       	and	r0, r0
 244:	e9 f7       	brne	.-6      	; 0x240 <main+0x8e>
 246:	31 97       	sbiw	r30, 0x01	; 1
 248:	ea 1b       	sub	r30, r26
 24a:	fb 0b       	sbc	r31, r27
				if(len < 16){
 24c:	e0 31       	cpi	r30, 0x10	; 16
 24e:	80 f4       	brcc	.+32     	; 0x270 <main+0xbe>
					buffer[len] = Data_Slave3;
 250:	ff 27       	eor	r31, r31
 252:	a2 e0       	ldi	r26, 0x02	; 2
 254:	b0 e0       	ldi	r27, 0x00	; 0
 256:	ac 0f       	add	r26, r28
 258:	bd 1f       	adc	r27, r29
 25a:	ae 0f       	add	r26, r30
 25c:	bf 1f       	adc	r27, r31
 25e:	8c 93       	st	X, r24
					buffer[len+1] = '\0';
 260:	31 96       	adiw	r30, 0x01	; 1
 262:	82 e0       	ldi	r24, 0x02	; 2
 264:	90 e0       	ldi	r25, 0x00	; 0
 266:	8c 0f       	add	r24, r28
 268:	9d 1f       	adc	r25, r29
 26a:	e8 0f       	add	r30, r24
 26c:	f9 1f       	adc	r31, r25
 26e:	10 82       	st	Z, r1
				}
			}

			// Hien thi
			Lcd_Set_Cursor(10, 0);
 270:	60 e0       	ldi	r22, 0x00	; 0
 272:	8a e0       	ldi	r24, 0x0A	; 10
 274:	0e 94 c1 00 	call	0x182	; 0x182 <Lcd_Set_Cursor>
			Lcd_Msg("Rec ");
 278:	80 e1       	ldi	r24, 0x10	; 16
 27a:	91 e0       	ldi	r25, 0x01	; 1
 27c:	0e 94 cb 00 	call	0x196	; 0x196 <Lcd_Msg>
			Lcd_Set_Cursor(0, 1);
 280:	61 e0       	ldi	r22, 0x01	; 1
 282:	80 e0       	ldi	r24, 0x00	; 0
 284:	0e 94 c1 00 	call	0x182	; 0x182 <Lcd_Set_Cursor>
			Lcd_Msg("Data:         ");
 288:	85 e1       	ldi	r24, 0x15	; 21
 28a:	91 e0       	ldi	r25, 0x01	; 1
 28c:	0e 94 cb 00 	call	0x196	; 0x196 <Lcd_Msg>
			Lcd_Set_Cursor(6, 1);
 290:	61 e0       	ldi	r22, 0x01	; 1
 292:	86 e0       	ldi	r24, 0x06	; 6
 294:	0e 94 c1 00 	call	0x182	; 0x182 <Lcd_Set_Cursor>
			Lcd_Msg(buffer);
 298:	ce 01       	movw	r24, r28
 29a:	02 96       	adiw	r24, 0x02	; 2
 29c:	0e 94 cb 00 	call	0x196	; 0x196 <Lcd_Msg>

			// LED control
			if(Data_Slave3 == 'H' || Data_Slave3 == 'e' || Data_Slave3 == 'l' || Data_Slave3 == 'o' || Data_Slave3 == 'S' || Data_Slave3 == 'a' || Data_Slave3 == 'v'){
 2a0:	89 81       	ldd	r24, Y+1	; 0x01
 2a2:	88 34       	cpi	r24, 0x48	; 72
 2a4:	61 f0       	breq	.+24     	; 0x2be <main+0x10c>
 2a6:	85 36       	cpi	r24, 0x65	; 101
 2a8:	51 f0       	breq	.+20     	; 0x2be <main+0x10c>
 2aa:	8c 36       	cpi	r24, 0x6C	; 108
 2ac:	41 f0       	breq	.+16     	; 0x2be <main+0x10c>
 2ae:	8f 36       	cpi	r24, 0x6F	; 111
 2b0:	31 f0       	breq	.+12     	; 0x2be <main+0x10c>
 2b2:	83 35       	cpi	r24, 0x53	; 83
 2b4:	21 f0       	breq	.+8      	; 0x2be <main+0x10c>
 2b6:	81 36       	cpi	r24, 0x61	; 97
 2b8:	11 f0       	breq	.+4      	; 0x2be <main+0x10c>
 2ba:	86 37       	cpi	r24, 0x76	; 118
 2bc:	29 f4       	brne	.+10     	; 0x2c8 <main+0x116>
				PORTC |= (1 << PORTC0);
 2be:	88 b1       	in	r24, 0x08	; 8
 2c0:	81 60       	ori	r24, 0x01	; 1
 2c2:	88 b9       	out	0x08, r24	; 8
	DDRC |= (1 << PORTC0);
	PORTC &= ~(1 << PORTC0);

	while(1){
		if(Modbus_Rec(ADDR_SLAVE3, &Data_Slave3, Length_Data_Slave3)){
			no_data_counter = 0;  // Reset n?u có d? li?u
 2c4:	10 e0       	ldi	r17, 0x00	; 0
			Lcd_Set_Cursor(6, 1);
			Lcd_Msg(buffer);

			// LED control
			if(Data_Slave3 == 'H' || Data_Slave3 == 'e' || Data_Slave3 == 'l' || Data_Slave3 == 'o' || Data_Slave3 == 'S' || Data_Slave3 == 'a' || Data_Slave3 == 'v'){
				PORTC |= (1 << PORTC0);
 2c6:	1a c0       	rjmp	.+52     	; 0x2fc <main+0x14a>
				} else {
				PORTC &= ~(1 << PORTC0);
 2c8:	88 b1       	in	r24, 0x08	; 8
 2ca:	8e 7f       	andi	r24, 0xFE	; 254
 2cc:	88 b9       	out	0x08, r24	; 8
	DDRC |= (1 << PORTC0);
	PORTC &= ~(1 << PORTC0);

	while(1){
		if(Modbus_Rec(ADDR_SLAVE3, &Data_Slave3, Length_Data_Slave3)){
			no_data_counter = 0;  // Reset n?u có d? li?u
 2ce:	10 e0       	ldi	r17, 0x00	; 0
 2d0:	15 c0       	rjmp	.+42     	; 0x2fc <main+0x14a>
				PORTC |= (1 << PORTC0);
				} else {
				PORTC &= ~(1 << PORTC0);
			}
			} else {
			no_data_counter++;  
 2d2:	1f 5f       	subi	r17, 0xFF	; 255
			if(no_data_counter >= 10){  //timer cho lcd xoa man hinh
 2d4:	1a 30       	cpi	r17, 0x0A	; 10
 2d6:	90 f0       	brcs	.+36     	; 0x2fc <main+0x14a>
				no_data_counter = 10;   

				// Xóa buffer và LCD
				buffer[0] = '\0';
 2d8:	1a 82       	std	Y+2, r1	; 0x02
				Lcd_Set_Cursor(10, 0);
 2da:	60 e0       	ldi	r22, 0x00	; 0
 2dc:	8a e0       	ldi	r24, 0x0A	; 10
 2de:	0e 94 c1 00 	call	0x182	; 0x182 <Lcd_Set_Cursor>
				Lcd_Msg("    ");
 2e2:	80 e3       	ldi	r24, 0x30	; 48
 2e4:	91 e0       	ldi	r25, 0x01	; 1
 2e6:	0e 94 cb 00 	call	0x196	; 0x196 <Lcd_Msg>
				Lcd_Set_Cursor(0, 1);
 2ea:	61 e0       	ldi	r22, 0x01	; 1
 2ec:	80 e0       	ldi	r24, 0x00	; 0
 2ee:	0e 94 c1 00 	call	0x182	; 0x182 <Lcd_Set_Cursor>
				Lcd_Msg("Data:           ");
 2f2:	84 e2       	ldi	r24, 0x24	; 36
 2f4:	91 e0       	ldi	r25, 0x01	; 1
 2f6:	0e 94 cb 00 	call	0x196	; 0x196 <Lcd_Msg>
				PORTC &= ~(1 << PORTC0);
			}
			} else {
			no_data_counter++;  
			if(no_data_counter >= 10){  //timer cho lcd xoa man hinh
				no_data_counter = 10;   
 2fa:	1a e0       	ldi	r17, 0x0A	; 10
	#else
		//round up by default
		__ticks_dc = (uint32_t)(ceil(fabs(__tmp)));
	#endif

	__builtin_avr_delay_cycles(__ticks_dc);
 2fc:	9f ef       	ldi	r25, 0xFF	; 255
 2fe:	a1 ee       	ldi	r26, 0xE1	; 225
 300:	b4 e0       	ldi	r27, 0x04	; 4
 302:	91 50       	subi	r25, 0x01	; 1
 304:	a0 40       	sbci	r26, 0x00	; 0
 306:	b0 40       	sbci	r27, 0x00	; 0
 308:	e1 f7       	brne	.-8      	; 0x302 <main+0x150>
 30a:	00 c0       	rjmp	.+0      	; 0x30c <main+0x15a>
 30c:	00 00       	nop
 30e:	85 cf       	rjmp	.-246    	; 0x21a <main+0x68>

00000310 <Uart_Init>:
	}
	uint16_t CRC_16 = Cal_CRC_16(Frame, Length_Frame);
	Frame[Length_Frame ++] = (uint8_t) CRC_16;       // Low Byte tr??c
	Frame[Length_Frame ++] = (uint8_t) (CRC_16 >> 8); // High Byte sau
	Uart_TransArray(Frame, Length_Frame);
}
 310:	82 95       	swap	r24
 312:	92 95       	swap	r25
 314:	90 7f       	andi	r25, 0xF0	; 240
 316:	98 27       	eor	r25, r24
 318:	80 7f       	andi	r24, 0xF0	; 240
 31a:	98 27       	eor	r25, r24
 31c:	9c 01       	movw	r18, r24
 31e:	40 e0       	ldi	r20, 0x00	; 0
 320:	50 e0       	ldi	r21, 0x00	; 0
 322:	60 e0       	ldi	r22, 0x00	; 0
 324:	74 e2       	ldi	r23, 0x24	; 36
 326:	84 ef       	ldi	r24, 0xF4	; 244
 328:	90 e0       	ldi	r25, 0x00	; 0
 32a:	0e 94 7e 02 	call	0x4fc	; 0x4fc <__udivmodsi4>
 32e:	21 50       	subi	r18, 0x01	; 1
 330:	31 09       	sbc	r19, r1
 332:	30 93 c5 00 	sts	0x00C5, r19	; 0x8000c5 <__TEXT_REGION_LENGTH__+0x7f80c5>
 336:	20 93 c4 00 	sts	0x00C4, r18	; 0x8000c4 <__TEXT_REGION_LENGTH__+0x7f80c4>
 33a:	88 e1       	ldi	r24, 0x18	; 24
 33c:	80 93 c1 00 	sts	0x00C1, r24	; 0x8000c1 <__TEXT_REGION_LENGTH__+0x7f80c1>
 340:	86 e0       	ldi	r24, 0x06	; 6
 342:	80 93 c2 00 	sts	0x00C2, r24	; 0x8000c2 <__TEXT_REGION_LENGTH__+0x7f80c2>
 346:	08 95       	ret

00000348 <Uart_RecByte>:
 348:	80 91 c0 00 	lds	r24, 0x00C0	; 0x8000c0 <__TEXT_REGION_LENGTH__+0x7f80c0>
 34c:	88 23       	and	r24, r24
 34e:	e4 f7       	brge	.-8      	; 0x348 <Uart_RecByte>
 350:	80 91 c6 00 	lds	r24, 0x00C6	; 0x8000c6 <__TEXT_REGION_LENGTH__+0x7f80c6>
 354:	08 95       	ret

00000356 <Uart_RecArray>:
 356:	cf 92       	push	r12
 358:	df 92       	push	r13
 35a:	ef 92       	push	r14
 35c:	ff 92       	push	r15
 35e:	0f 93       	push	r16
 360:	1f 93       	push	r17
 362:	cf 93       	push	r28
 364:	df 93       	push	r29
 366:	6c 01       	movw	r12, r24
 368:	7b 01       	movw	r14, r22
 36a:	c0 e0       	ldi	r28, 0x00	; 0
 36c:	d0 e0       	ldi	r29, 0x00	; 0
 36e:	08 c0       	rjmp	.+16     	; 0x380 <Uart_RecArray+0x2a>
 370:	86 01       	movw	r16, r12
 372:	0c 0f       	add	r16, r28
 374:	1d 1f       	adc	r17, r29
 376:	0e 94 a4 01 	call	0x348	; 0x348 <Uart_RecByte>
 37a:	f8 01       	movw	r30, r16
 37c:	80 83       	st	Z, r24
 37e:	21 96       	adiw	r28, 0x01	; 1
 380:	ce 15       	cp	r28, r14
 382:	df 05       	cpc	r29, r15
 384:	a8 f3       	brcs	.-22     	; 0x370 <Uart_RecArray+0x1a>
 386:	df 91       	pop	r29
 388:	cf 91       	pop	r28
 38a:	1f 91       	pop	r17
 38c:	0f 91       	pop	r16
 38e:	ff 90       	pop	r15
 390:	ef 90       	pop	r14
 392:	df 90       	pop	r13
 394:	cf 90       	pop	r12
 396:	08 95       	ret

00000398 <RS485_Init>:
 398:	8a b1       	in	r24, 0x0a	; 10
 39a:	84 60       	ori	r24, 0x04	; 4
 39c:	8a b9       	out	0x0a, r24	; 10
 39e:	8b b1       	in	r24, 0x0b	; 11
 3a0:	8b 7f       	andi	r24, 0xFB	; 251
 3a2:	8b b9       	out	0x0b, r24	; 11
 3a4:	08 95       	ret

000003a6 <RS485_EN_Rec>:
 3a6:	8b b1       	in	r24, 0x0b	; 11
 3a8:	8b 7f       	andi	r24, 0xFB	; 251
 3aa:	8b b9       	out	0x0b, r24	; 11
 3ac:	8f e3       	ldi	r24, 0x3F	; 63
 3ae:	9c e9       	ldi	r25, 0x9C	; 156
 3b0:	01 97       	sbiw	r24, 0x01	; 1
 3b2:	f1 f7       	brne	.-4      	; 0x3b0 <RS485_EN_Rec+0xa>
 3b4:	00 c0       	rjmp	.+0      	; 0x3b6 <RS485_EN_Rec+0x10>
 3b6:	00 00       	nop
 3b8:	08 95       	ret

000003ba <Cal_CRC_16>:
 3ba:	dc 01       	movw	r26, r24
 3bc:	40 e0       	ldi	r20, 0x00	; 0
 3be:	50 e0       	ldi	r21, 0x00	; 0
 3c0:	8f ef       	ldi	r24, 0xFF	; 255
 3c2:	9f ef       	ldi	r25, 0xFF	; 255
 3c4:	17 c0       	rjmp	.+46     	; 0x3f4 <Cal_CRC_16+0x3a>
 3c6:	fd 01       	movw	r30, r26
 3c8:	e4 0f       	add	r30, r20
 3ca:	f5 1f       	adc	r31, r21
 3cc:	20 81       	ld	r18, Z
 3ce:	82 27       	eor	r24, r18
 3d0:	20 e0       	ldi	r18, 0x00	; 0
 3d2:	0c c0       	rjmp	.+24     	; 0x3ec <Cal_CRC_16+0x32>
 3d4:	80 ff       	sbrs	r24, 0
 3d6:	07 c0       	rjmp	.+14     	; 0x3e6 <Cal_CRC_16+0x2c>
 3d8:	96 95       	lsr	r25
 3da:	87 95       	ror	r24
 3dc:	31 e0       	ldi	r19, 0x01	; 1
 3de:	83 27       	eor	r24, r19
 3e0:	30 ea       	ldi	r19, 0xA0	; 160
 3e2:	93 27       	eor	r25, r19
 3e4:	02 c0       	rjmp	.+4      	; 0x3ea <Cal_CRC_16+0x30>
 3e6:	96 95       	lsr	r25
 3e8:	87 95       	ror	r24
 3ea:	2f 5f       	subi	r18, 0xFF	; 255
 3ec:	28 30       	cpi	r18, 0x08	; 8
 3ee:	90 f3       	brcs	.-28     	; 0x3d4 <Cal_CRC_16+0x1a>
 3f0:	4f 5f       	subi	r20, 0xFF	; 255
 3f2:	5f 4f       	sbci	r21, 0xFF	; 255
 3f4:	46 17       	cp	r20, r22
 3f6:	57 07       	cpc	r21, r23
 3f8:	30 f3       	brcs	.-52     	; 0x3c6 <Cal_CRC_16+0xc>
 3fa:	08 95       	ret

000003fc <Check_CRC_16>:
 3fc:	ef 92       	push	r14
 3fe:	ff 92       	push	r15
 400:	0f 93       	push	r16
 402:	1f 93       	push	r17
 404:	cf 93       	push	r28
 406:	df 93       	push	r29
 408:	62 30       	cpi	r22, 0x02	; 2
 40a:	71 05       	cpc	r23, r1
 40c:	e8 f0       	brcs	.+58     	; 0x448 <__EEPROM_REGION_LENGTH__+0x48>
 40e:	eb 01       	movw	r28, r22
 410:	8c 01       	movw	r16, r24
 412:	7b 01       	movw	r14, r22
 414:	82 e0       	ldi	r24, 0x02	; 2
 416:	e8 1a       	sub	r14, r24
 418:	f1 08       	sbc	r15, r1
 41a:	b7 01       	movw	r22, r14
 41c:	c8 01       	movw	r24, r16
 41e:	0e 94 dd 01 	call	0x3ba	; 0x3ba <Cal_CRC_16>
 422:	c0 0f       	add	r28, r16
 424:	d1 1f       	adc	r29, r17
 426:	21 97       	sbiw	r28, 0x01	; 1
 428:	28 81       	ld	r18, Y
 42a:	30 e0       	ldi	r19, 0x00	; 0
 42c:	32 2f       	mov	r19, r18
 42e:	22 27       	eor	r18, r18
 430:	f8 01       	movw	r30, r16
 432:	ee 0d       	add	r30, r14
 434:	ff 1d       	adc	r31, r15
 436:	40 81       	ld	r20, Z
 438:	24 2b       	or	r18, r20
 43a:	41 e0       	ldi	r20, 0x01	; 1
 43c:	82 17       	cp	r24, r18
 43e:	93 07       	cpc	r25, r19
 440:	09 f0       	breq	.+2      	; 0x444 <__EEPROM_REGION_LENGTH__+0x44>
 442:	40 e0       	ldi	r20, 0x00	; 0
 444:	84 2f       	mov	r24, r20
 446:	01 c0       	rjmp	.+2      	; 0x44a <__EEPROM_REGION_LENGTH__+0x4a>
 448:	80 e0       	ldi	r24, 0x00	; 0
 44a:	df 91       	pop	r29
 44c:	cf 91       	pop	r28
 44e:	1f 91       	pop	r17
 450:	0f 91       	pop	r16
 452:	ff 90       	pop	r15
 454:	ef 90       	pop	r14
 456:	08 95       	ret

00000458 <Modbus_Rec>:

uint8_t Modbus_Rec(uint8_t Addr, uint8_t *Data, uint16_t Length_Data){
 458:	bf 92       	push	r11
 45a:	cf 92       	push	r12
 45c:	df 92       	push	r13
 45e:	ef 92       	push	r14
 460:	ff 92       	push	r15
 462:	0f 93       	push	r16
 464:	1f 93       	push	r17
 466:	cf 93       	push	r28
 468:	df 93       	push	r29
 46a:	cd b7       	in	r28, 0x3d	; 61
 46c:	de b7       	in	r29, 0x3e	; 62
 46e:	da 95       	dec	r29
 470:	0f b6       	in	r0, 0x3f	; 63
 472:	f8 94       	cli
 474:	de bf       	out	0x3e, r29	; 62
 476:	0f be       	out	0x3f, r0	; 63
 478:	cd bf       	out	0x3d, r28	; 61
 47a:	b8 2e       	mov	r11, r24
 47c:	7b 01       	movw	r14, r22
 47e:	8a 01       	movw	r16, r20
	RS485_EN_Rec();
 480:	0e 94 d3 01 	call	0x3a6	; 0x3a6 <RS485_EN_Rec>
	uint8_t Frame[SIZE_OF_BUF];
	uint16_t Length_Frame = Length_Data + 3;
 484:	68 01       	movw	r12, r16
 486:	83 e0       	ldi	r24, 0x03	; 3
 488:	c8 0e       	add	r12, r24
 48a:	d1 1c       	adc	r13, r1

	Uart_RecArray(Frame, Length_Frame);
 48c:	b6 01       	movw	r22, r12
 48e:	ce 01       	movw	r24, r28
 490:	01 96       	adiw	r24, 0x01	; 1
 492:	0e 94 ab 01 	call	0x356	; 0x356 <Uart_RecArray>

	if ((Frame[0] == Addr) && (Check_CRC_16(Frame, Length_Frame))) {
 496:	89 81       	ldd	r24, Y+1	; 0x01
 498:	8b 11       	cpse	r24, r11
 49a:	1c c0       	rjmp	.+56     	; 0x4d4 <Modbus_Rec+0x7c>
 49c:	b6 01       	movw	r22, r12
 49e:	ce 01       	movw	r24, r28
 4a0:	01 96       	adiw	r24, 0x01	; 1
 4a2:	0e 94 fe 01 	call	0x3fc	; 0x3fc <Check_CRC_16>
 4a6:	81 11       	cpse	r24, r1
 4a8:	0e c0       	rjmp	.+28     	; 0x4c6 <Modbus_Rec+0x6e>
 4aa:	14 c0       	rjmp	.+40     	; 0x4d4 <Modbus_Rec+0x7c>
		for(uint16_t i = 0; i < Length_Data; i++){
			Data[i] = Frame[i + 1];
 4ac:	d7 01       	movw	r26, r14
 4ae:	a8 0f       	add	r26, r24
 4b0:	b9 1f       	adc	r27, r25
 4b2:	01 96       	adiw	r24, 0x01	; 1
 4b4:	e1 e0       	ldi	r30, 0x01	; 1
 4b6:	f0 e0       	ldi	r31, 0x00	; 0
 4b8:	ec 0f       	add	r30, r28
 4ba:	fd 1f       	adc	r31, r29
 4bc:	e8 0f       	add	r30, r24
 4be:	f9 1f       	adc	r31, r25
 4c0:	20 81       	ld	r18, Z
 4c2:	2c 93       	st	X, r18
 4c4:	02 c0       	rjmp	.+4      	; 0x4ca <Modbus_Rec+0x72>
 4c6:	80 e0       	ldi	r24, 0x00	; 0
 4c8:	90 e0       	ldi	r25, 0x00	; 0
	uint16_t Length_Frame = Length_Data + 3;

	Uart_RecArray(Frame, Length_Frame);

	if ((Frame[0] == Addr) && (Check_CRC_16(Frame, Length_Frame))) {
		for(uint16_t i = 0; i < Length_Data; i++){
 4ca:	80 17       	cp	r24, r16
 4cc:	91 07       	cpc	r25, r17
 4ce:	70 f3       	brcs	.-36     	; 0x4ac <Modbus_Rec+0x54>
			Data[i] = Frame[i + 1];
		}
		return 1;
 4d0:	81 e0       	ldi	r24, 0x01	; 1
 4d2:	04 c0       	rjmp	.+8      	; 0x4dc <Modbus_Rec+0x84>
		} else {
		*Data = DATA_ERROR;
 4d4:	8f ef       	ldi	r24, 0xFF	; 255
 4d6:	f7 01       	movw	r30, r14
 4d8:	80 83       	st	Z, r24
		return 0;
 4da:	80 e0       	ldi	r24, 0x00	; 0
	}
}
 4dc:	d3 95       	inc	r29
 4de:	0f b6       	in	r0, 0x3f	; 63
 4e0:	f8 94       	cli
 4e2:	de bf       	out	0x3e, r29	; 62
 4e4:	0f be       	out	0x3f, r0	; 63
 4e6:	cd bf       	out	0x3d, r28	; 61
 4e8:	df 91       	pop	r29
 4ea:	cf 91       	pop	r28
 4ec:	1f 91       	pop	r17
 4ee:	0f 91       	pop	r16
 4f0:	ff 90       	pop	r15
 4f2:	ef 90       	pop	r14
 4f4:	df 90       	pop	r13
 4f6:	cf 90       	pop	r12
 4f8:	bf 90       	pop	r11
 4fa:	08 95       	ret

000004fc <__udivmodsi4>:
 4fc:	a1 e2       	ldi	r26, 0x21	; 33
 4fe:	1a 2e       	mov	r1, r26
 500:	aa 1b       	sub	r26, r26
 502:	bb 1b       	sub	r27, r27
 504:	fd 01       	movw	r30, r26
 506:	0d c0       	rjmp	.+26     	; 0x522 <__udivmodsi4_ep>

00000508 <__udivmodsi4_loop>:
 508:	aa 1f       	adc	r26, r26
 50a:	bb 1f       	adc	r27, r27
 50c:	ee 1f       	adc	r30, r30
 50e:	ff 1f       	adc	r31, r31
 510:	a2 17       	cp	r26, r18
 512:	b3 07       	cpc	r27, r19
 514:	e4 07       	cpc	r30, r20
 516:	f5 07       	cpc	r31, r21
 518:	20 f0       	brcs	.+8      	; 0x522 <__udivmodsi4_ep>
 51a:	a2 1b       	sub	r26, r18
 51c:	b3 0b       	sbc	r27, r19
 51e:	e4 0b       	sbc	r30, r20
 520:	f5 0b       	sbc	r31, r21

00000522 <__udivmodsi4_ep>:
 522:	66 1f       	adc	r22, r22
 524:	77 1f       	adc	r23, r23
 526:	88 1f       	adc	r24, r24
 528:	99 1f       	adc	r25, r25
 52a:	1a 94       	dec	r1
 52c:	69 f7       	brne	.-38     	; 0x508 <__udivmodsi4_loop>
 52e:	60 95       	com	r22
 530:	70 95       	com	r23
 532:	80 95       	com	r24
 534:	90 95       	com	r25
 536:	9b 01       	movw	r18, r22
 538:	ac 01       	movw	r20, r24
 53a:	bd 01       	movw	r22, r26
 53c:	cf 01       	movw	r24, r30
 53e:	08 95       	ret

00000540 <_exit>:
 540:	f8 94       	cli

00000542 <__stop_program>:
 542:	ff cf       	rjmp	.-2      	; 0x542 <__stop_program>
